; Function Attrs: mustprogress uwtable
define internal noundef zeroext i1 @_ZN12_GLOBAL__N_117HandleCopyCommandERKSt6vectorINSt7__cxx1112basic_stringIcSt11char_traitsIcESaIcEEESaIS6_EER17cmExecutionStatus(ptr noundef nonnull align 8 dereferenceable(24) %0, ptr noundef nonnull align 8 dereferenceable(80) %1) #5 personality ptr @__gxx_personality_v0 {
  %3 = alloca %struct.cmFileCopier, align 8
  call void @llvm.lifetime.start.p0(i64 248, ptr nonnull %3) #29
  call void @_ZN12cmFileCopierC1ER17cmExecutionStatusPKc(ptr noundef nonnull align 8 dereferenceable(244) %3, ptr noundef nonnull align 8 dereferenceable(80) %1, ptr noundef nonnull @.str.28)
  %4 = invoke noundef zeroext i1 @_ZN12cmFileCopier3RunERKSt6vectorINSt7__cxx1112basic_stringIcSt11char_traitsIcESaIcEEESaIS6_EE(ptr noundef nonnull align 8 dereferenceable(244) %3, ptr noundef nonnull align 8 dereferenceable(24) %0)
          to label %5 unwind label %6

5:                                                ; preds = %2
  call void @_ZN12cmFileCopierD1Ev(ptr noundef nonnull align 8 dereferenceable(244) %3) #29
  call void @llvm.lifetime.end.p0(i64 248, ptr nonnull %3) #29
  ret i1 %4

6:                                                ; preds = %2
  %7 = landingpad { ptr, i32 }
          cleanup
  call void @_ZN12cmFileCopierD1Ev(ptr noundef nonnull align 8 dereferenceable(244) %3) #29
  call void @llvm.lifetime.end.p0(i64 248, ptr nonnull %3) #29
  resume { ptr, i32 } %7
}